target datalayout = "e-m:e-p270:32:32-p271:32:32-p272:64:64-i64:64-i128:128-f80:128-n8:16:32:64-S128"
target triple = "x86_64-pc-linux-gnu"

%struct.RealCommandRunner = type { %struct.CommandRunner, ptr, %struct.SubprocessSet, %"class.std::map" }
%struct.CommandRunner = type { ptr }
%struct.SubprocessSet = type { %"class.std::vector.0", %"class.std::queue", %struct.sigaction, %struct.sigaction, %struct.sigaction, %struct.__sigset_t }
%"class.std::vector.0" = type { %"struct.std::_Vector_base.1" }
%"struct.std::_Vector_base.1" = type { %"struct.std::_Vector_base<Subprocess *, std::allocator<Subprocess *>>::_Vector_impl" }
%"struct.std::_Vector_base<Subprocess *, std::allocator<Subprocess *>>::_Vector_impl" = type { %"struct.std::_Vector_base<Subprocess *, std::allocator<Subprocess *>>::_Vector_impl_data" }
%"struct.std::_Vector_base<Subprocess *, std::allocator<Subprocess *>>::_Vector_impl_data" = type { ptr, ptr, ptr }
%"class.std::queue" = type { %"class.std::deque" }
%"class.std::deque" = type { %"class.std::_Deque_base" }
%"class.std::_Deque_base" = type { %"struct.std::_Deque_base<Subprocess *, std::allocator<Subprocess *>>::_Deque_impl" }
%"struct.std::_Deque_base<Subprocess *, std::allocator<Subprocess *>>::_Deque_impl" = type { %"struct.std::_Deque_base<Subprocess *, std::allocator<Subprocess *>>::_Deque_impl_data" }
%"struct.std::_Deque_base<Subprocess *, std::allocator<Subprocess *>>::_Deque_impl_data" = type { ptr, i64, %"struct.std::_Deque_iterator", %"struct.std::_Deque_iterator" }
%"struct.std::_Deque_iterator" = type { ptr, ptr, ptr, ptr }
%struct.sigaction = type { %union.anon, %struct.__sigset_t, i32, ptr }
%union.anon = type { ptr }
%struct.__sigset_t = type { [16 x i64] }
%"class.std::map" = type { %"class.std::_Rb_tree" }
%"class.std::_Rb_tree" = type { %"struct.std::_Rb_tree<const Subprocess *, std::pair<const Subprocess *const, Edge *>, std::_Select1st<std::pair<const Subprocess *const, Edge *>>, std::less<const Subprocess *>>::_Rb_tree_impl" }
%"struct.std::_Rb_tree<const Subprocess *, std::pair<const Subprocess *const, Edge *>, std::_Select1st<std::pair<const Subprocess *const, Edge *>>, std::less<const Subprocess *>>::_Rb_tree_impl" = type { [8 x i8], %"struct.std::_Rb_tree_header" }
%"struct.std::_Rb_tree_header" = type { %"struct.std::_Rb_tree_node_base", i64 }
%"struct.std::_Rb_tree_node_base" = type { i32, ptr, ptr, ptr }
%struct.BuildConfig = type <{ i32, i8, [3 x i8], i32, i32, double, [8 x i8] }>
%"class.__gnu_cxx::__normal_iterator.21" = type { ptr }

; Function Attrs: noinline noreturn nounwind uwtable
define linkonce_odr hidden void @__clang_call_terminate(ptr noundef %0) #11 comdat {
  %2 = call ptr @__cxa_begin_catch(ptr %0) #16
  call void @_ZSt9terminatev() #18
  unreachable
}

; Function Attrs: inlinehint mustprogress nounwind uwtable
define linkonce_odr dso_local noundef i64 @_ZSt16__deque_buf_sizem(i64 noundef %0) #8 comdat {
  %2 = alloca i64, align 8
  store i64 %0, ptr %2, align 8, !tbaa !27
  %3 = load i64, ptr %2, align 8, !tbaa !27
  %4 = icmp ult i64 %3, 512
  br i1 %4, label %5, label %8

5:                                                ; preds = %1
  %6 = load i64, ptr %2, align 8, !tbaa !27
  %7 = udiv i64 512, %6
  br label %9

8:                                                ; preds = %1
  br label %9

9:                                                ; preds = %8, %5
  %10 = phi i64 [ %7, %5 ], [ 1, %8 ]
  ret i64 %10
}

; Function Attrs: mustprogress nounwind uwtable
define linkonce_odr dso_local noundef i64 @_ZNSt15_Deque_iteratorIP10SubprocessRS1_PS1_E14_S_buffer_sizeEv() #1 comdat align 2 personality ptr @__gxx_personality_v0 {
  %1 = invoke noundef i64 @_ZSt16__deque_buf_sizem(i64 noundef 8)
          to label %2 unwind label %3

2:                                                ; preds = %0
  ret i64 %1

3:                                                ; preds = %0
  %4 = landingpad { ptr, i32 }
          catch ptr null
  %5 = extractvalue { ptr, i32 } %4, 0
  call void @__clang_call_terminate(ptr %5) #18
  unreachable
}

; Function Attrs: mustprogress nounwind uwtable
define linkonce_odr dso_local noundef nonnull align 8 dereferenceable(8) ptr @_ZNK9__gnu_cxx17__normal_iteratorIPKP10SubprocessSt6vectorIS2_SaIS2_EEE4baseEv(ptr noundef nonnull align 8 dereferenceable(8) %0) #1 comdat align 2 {
  %2 = alloca ptr, align 8
  store ptr %0, ptr %2, align 8, !tbaa !168
  %3 = load ptr, ptr %2, align 8
  %4 = getelementptr inbounds nuw %"class.__gnu_cxx::__normal_iterator.21", ptr %3, i32 0, i32 0
  ret ptr %4
}

; Function Attrs: mustprogress nounwind uwtable
define linkonce_odr dso_local void @_ZN9__gnu_cxx17__normal_iteratorIPKP10SubprocessSt6vectorIS2_SaIS2_EEEC2ERKS4_(ptr noundef nonnull align 8 dereferenceable(8) %0, ptr noundef nonnull align 8 dereferenceable(8) %1) unnamed_addr #1 comdat align 2 {
  %3 = alloca ptr, align 8
  %4 = alloca ptr, align 8
  store ptr %0, ptr %3, align 8, !tbaa !168
  store ptr %1, ptr %4, align 8, !tbaa !170
  %5 = load ptr, ptr %3, align 8
  %6 = getelementptr inbounds nuw %"class.__gnu_cxx::__normal_iterator.21", ptr %5, i32 0, i32 0
  %7 = load ptr, ptr %4, align 8, !tbaa !170
  %8 = load ptr, ptr %7, align 8, !tbaa !78
  store ptr %8, ptr %6, align 8, !tbaa !171
  ret void
}

; Function Attrs: mustprogress nounwind uwtable
define linkonce_odr dso_local noundef i64 @_ZStmiRKSt15_Deque_iteratorIP10SubprocessRS1_PS1_ES6_(ptr noundef nonnull align 8 dereferenceable(32) %0, ptr noundef nonnull align 8 dereferenceable(32) %1) #1 comdat {
  %3 = alloca ptr, align 8
  %4 = alloca ptr, align 8
  store ptr %0, ptr %3, align 8, !tbaa !162
  store ptr %1, ptr %4, align 8, !tbaa !162
  %5 = call noundef i64 @_ZNSt15_Deque_iteratorIP10SubprocessRS1_PS1_E14_S_buffer_sizeEv() #16
  %6 = load ptr, ptr %3, align 8, !tbaa !162
  %7 = getelementptr inbounds nuw %"struct.std::_Deque_iterator", ptr %6, i32 0, i32 3
  %8 = load ptr, ptr %7, align 8, !tbaa !164
  %9 = load ptr, ptr %4, align 8, !tbaa !162
  %10 = getelementptr inbounds nuw %"struct.std::_Deque_iterator", ptr %9, i32 0, i32 3
  %11 = load ptr, ptr %10, align 8, !tbaa !164
  %12 = ptrtoint ptr %8 to i64
  %13 = ptrtoint ptr %11 to i64
  %14 = sub i64 %12, %13
  %15 = sdiv exact i64 %14, 8
  %16 = load ptr, ptr %3, align 8, !tbaa !162
  %17 = getelementptr inbounds nuw %"struct.std::_Deque_iterator", ptr %16, i32 0, i32 3
  %18 = load ptr, ptr %17, align 8, !tbaa !164
  %19 = icmp ne ptr %18, null
  %20 = zext i1 %19 to i64
  %21 = sub nsw i64 %15, %20
  %22 = mul nsw i64 %5, %21
  %23 = load ptr, ptr %3, align 8, !tbaa !162
  %24 = getelementptr inbounds nuw %"struct.std::_Deque_iterator", ptr %23, i32 0, i32 0
  %25 = load ptr, ptr %24, align 8, !tbaa !165
  %26 = load ptr, ptr %3, align 8, !tbaa !162
  %27 = getelementptr inbounds nuw %"struct.std::_Deque_iterator", ptr %26, i32 0, i32 1
  %28 = load ptr, ptr %27, align 8, !tbaa !166
  %29 = ptrtoint ptr %25 to i64
  %30 = ptrtoint ptr %28 to i64
  %31 = sub i64 %29, %30
  %32 = sdiv exact i64 %31, 8
  %33 = add nsw i64 %22, %32
  %34 = load ptr, ptr %4, align 8, !tbaa !162
  %35 = getelementptr inbounds nuw %"struct.std::_Deque_iterator", ptr %34, i32 0, i32 2
  %36 = load ptr, ptr %35, align 8, !tbaa !167
  %37 = load ptr, ptr %4, align 8, !tbaa !162
  %38 = getelementptr inbounds nuw %"struct.std::_Deque_iterator", ptr %37, i32 0, i32 0
  %39 = load ptr, ptr %38, align 8, !tbaa !165
  %40 = ptrtoint ptr %36 to i64
  %41 = ptrtoint ptr %39 to i64
  %42 = sub i64 %40, %41
  %43 = sdiv exact i64 %42, 8
  %44 = add nsw i64 %33, %43
  ret i64 %44
}

; Function Attrs: inlinehint mustprogress nounwind uwtable
define linkonce_odr dso_local noundef zeroext i1 @_ZN9__gnu_cxxeqIPKP10SubprocessSt6vectorIS2_SaIS2_EEEEbRKNS_17__normal_iteratorIT_T0_EESD_(ptr noundef nonnull align 8 dereferenceable(8) %0, ptr noundef nonnull align 8 dereferenceable(8) %1) #8 comdat {
  %3 = alloca ptr, align 8
  %4 = alloca ptr, align 8
  store ptr %0, ptr %3, align 8, !tbaa !168
  store ptr %1, ptr %4, align 8, !tbaa !168
  %5 = load ptr, ptr %3, align 8, !tbaa !168
  %6 = call noundef nonnull align 8 dereferenceable(8) ptr @_ZNK9__gnu_cxx17__normal_iteratorIPKP10SubprocessSt6vectorIS2_SaIS2_EEE4baseEv(ptr noundef nonnull align 8 dereferenceable(8) %5) #16
  %7 = load ptr, ptr %6, align 8, !tbaa !78
  %8 = load ptr, ptr %4, align 8, !tbaa !168
  %9 = call noundef nonnull align 8 dereferenceable(8) ptr @_ZNK9__gnu_cxx17__normal_iteratorIPKP10SubprocessSt6vectorIS2_SaIS2_EEE4baseEv(ptr noundef nonnull align 8 dereferenceable(8) %8) #16
  %10 = load ptr, ptr %9, align 8, !tbaa !78
  %11 = icmp eq ptr %7, %10
  ret i1 %11
}

; Function Attrs: mustprogress nounwind uwtable
define linkonce_odr dso_local ptr @_ZNKSt6vectorIP10SubprocessSaIS1_EE3endEv(ptr noundef nonnull align 8 dereferenceable(24) %0) #1 comdat align 2 {
  %2 = alloca %"class.__gnu_cxx::__normal_iterator.21", align 8
  %3 = alloca ptr, align 8
  store ptr %0, ptr %3, align 8, !tbaa !66
  %4 = load ptr, ptr %3, align 8
  %5 = getelementptr inbounds nuw %"struct.std::_Vector_base.1", ptr %4, i32 0, i32 0
  %6 = getelementptr inbounds nuw %"struct.std::_Vector_base<Subprocess *, std::allocator<Subprocess *>>::_Vector_impl_data", ptr %5, i32 0, i32 1
  call void @_ZN9__gnu_cxx17__normal_iteratorIPKP10SubprocessSt6vectorIS2_SaIS2_EEEC2ERKS4_(ptr noundef nonnull align 8 dereferenceable(8) %2, ptr noundef nonnull align 8 dereferenceable(8) %6) #16
  %7 = getelementptr inbounds nuw %"class.__gnu_cxx::__normal_iterator.21", ptr %2, i32 0, i32 0
  %8 = load ptr, ptr %7, align 8
  ret ptr %8
}

; Function Attrs: mustprogress nounwind uwtable
define linkonce_odr dso_local ptr @_ZNKSt6vectorIP10SubprocessSaIS1_EE5beginEv(ptr noundef nonnull align 8 dereferenceable(24) %0) #1 comdat align 2 {
  %2 = alloca %"class.__gnu_cxx::__normal_iterator.21", align 8
  %3 = alloca ptr, align 8
  store ptr %0, ptr %3, align 8, !tbaa !66
  %4 = load ptr, ptr %3, align 8
  %5 = getelementptr inbounds nuw %"struct.std::_Vector_base.1", ptr %4, i32 0, i32 0
  %6 = getelementptr inbounds nuw %"struct.std::_Vector_base<Subprocess *, std::allocator<Subprocess *>>::_Vector_impl_data", ptr %5, i32 0, i32 0
  call void @_ZN9__gnu_cxx17__normal_iteratorIPKP10SubprocessSt6vectorIS2_SaIS2_EEEC2ERKS4_(ptr noundef nonnull align 8 dereferenceable(8) %2, ptr noundef nonnull align 8 dereferenceable(8) %6) #16
  %7 = getelementptr inbounds nuw %"class.__gnu_cxx::__normal_iterator.21", ptr %2, i32 0, i32 0
  %8 = load ptr, ptr %7, align 8
  ret ptr %8
}

; Function Attrs: mustprogress nounwind uwtable
define linkonce_odr dso_local noundef i64 @_ZNKSt5dequeIP10SubprocessSaIS1_EE4sizeEv(ptr noundef nonnull align 8 dereferenceable(80) %0) #1 comdat align 2 {
  %2 = alloca ptr, align 8
  store ptr %0, ptr %2, align 8, !tbaa !160
  %3 = load ptr, ptr %2, align 8
  %4 = getelementptr inbounds nuw %"class.std::_Deque_base", ptr %3, i32 0, i32 0
  %5 = getelementptr inbounds nuw %"struct.std::_Deque_base<Subprocess *, std::allocator<Subprocess *>>::_Deque_impl_data", ptr %4, i32 0, i32 3
  %6 = getelementptr inbounds nuw %"class.std::_Deque_base", ptr %3, i32 0, i32 0
  %7 = getelementptr inbounds nuw %"struct.std::_Deque_base<Subprocess *, std::allocator<Subprocess *>>::_Deque_impl_data", ptr %6, i32 0, i32 2
  %8 = call noundef i64 @_ZStmiRKSt15_Deque_iteratorIP10SubprocessRS1_PS1_ES6_(ptr noundef nonnull align 8 dereferenceable(32) %5, ptr noundef nonnull align 8 dereferenceable(32) %7) #16
  ret i64 %8
}

; Function Attrs: mustprogress nounwind uwtable
define linkonce_odr dso_local noundef zeroext i1 @_ZNKSt6vectorIP10SubprocessSaIS1_EE5emptyEv(ptr noundef nonnull align 8 dereferenceable(24) %0) #1 comdat align 2 {
  %2 = alloca ptr, align 8
  %3 = alloca %"class.__gnu_cxx::__normal_iterator.21", align 8
  %4 = alloca %"class.__gnu_cxx::__normal_iterator.21", align 8
  store ptr %0, ptr %2, align 8, !tbaa !66
  %5 = load ptr, ptr %2, align 8
  call void @llvm.lifetime.start.p0(i64 8, ptr %3) #16
  %6 = call ptr @_ZNKSt6vectorIP10SubprocessSaIS1_EE5beginEv(ptr noundef nonnull align 8 dereferenceable(24) %5) #16
  %7 = getelementptr inbounds nuw %"class.__gnu_cxx::__normal_iterator.21", ptr %3, i32 0, i32 0
  store ptr %6, ptr %7, align 8
  call void @llvm.lifetime.start.p0(i64 8, ptr %4) #16
  %8 = call ptr @_ZNKSt6vectorIP10SubprocessSaIS1_EE3endEv(ptr noundef nonnull align 8 dereferenceable(24) %5) #16
  %9 = getelementptr inbounds nuw %"class.__gnu_cxx::__normal_iterator.21", ptr %4, i32 0, i32 0
  store ptr %8, ptr %9, align 8
  %10 = call noundef zeroext i1 @_ZN9__gnu_cxxeqIPKP10SubprocessSt6vectorIS2_SaIS2_EEEEbRKNS_17__normal_iteratorIT_T0_EESD_(ptr noundef nonnull align 8 dereferenceable(8) %3, ptr noundef nonnull align 8 dereferenceable(8) %4) #16
  call void @llvm.lifetime.end.p0(i64 8, ptr %4) #16
  call void @llvm.lifetime.end.p0(i64 8, ptr %3) #16
  ret i1 %10
}

; Function Attrs: mustprogress nounwind uwtable
define linkonce_odr dso_local noundef i64 @_ZNKSt5queueIP10SubprocessSt5dequeIS1_SaIS1_EEE4sizeEv(ptr noundef nonnull align 8 dereferenceable(80) %0) #1 comdat align 2 {
  %2 = alloca ptr, align 8
  store ptr %0, ptr %2, align 8, !tbaa !70
  %3 = load ptr, ptr %2, align 8
  %4 = getelementptr inbounds nuw %"class.std::queue", ptr %3, i32 0, i32 0
  %5 = call noundef i64 @_ZNKSt5dequeIP10SubprocessSaIS1_EE4sizeEv(ptr noundef nonnull align 8 dereferenceable(80) %4) #16
  ret i64 %5
}

; Function Attrs: mustprogress nounwind uwtable
define linkonce_odr dso_local noundef i64 @_ZNKSt6vectorIP10SubprocessSaIS1_EE4sizeEv(ptr noundef nonnull align 8 dereferenceable(24) %0) #1 comdat align 2 {
  %2 = alloca ptr, align 8
  store ptr %0, ptr %2, align 8, !tbaa !66
  %3 = load ptr, ptr %2, align 8
  %4 = getelementptr inbounds nuw %"struct.std::_Vector_base.1", ptr %3, i32 0, i32 0
  %5 = getelementptr inbounds nuw %"struct.std::_Vector_base<Subprocess *, std::allocator<Subprocess *>>::_Vector_impl_data", ptr %4, i32 0, i32 1
  %6 = load ptr, ptr %5, align 8, !tbaa !68
  %7 = getelementptr inbounds nuw %"struct.std::_Vector_base.1", ptr %3, i32 0, i32 0
  %8 = getelementptr inbounds nuw %"struct.std::_Vector_base<Subprocess *, std::allocator<Subprocess *>>::_Vector_impl_data", ptr %7, i32 0, i32 0
  %9 = load ptr, ptr %8, align 8, !tbaa !69
  %10 = ptrtoint ptr %6 to i64
  %11 = ptrtoint ptr %9 to i64
  %12 = sub i64 %10, %11
  %13 = sdiv exact i64 %12, 8
  ret i64 %13
}

; Function Attrs: mustprogress uwtable
define dso_local noundef i64 @_ZNK17RealCommandRunner10CanRunMoreEv(ptr noundef nonnull align 8 dereferenceable(752) %0) unnamed_addr #0 align 2 {
  %2 = alloca ptr, align 8
  %3 = alloca i64, align 8
  %4 = alloca i64, align 8
  %5 = alloca i32, align 4
  store ptr %0, ptr %2, align 8, !tbaa !4
  %6 = load ptr, ptr %2, align 8
  call void @llvm.lifetime.start.p0(i64 8, ptr %3) #16
  %7 = getelementptr inbounds nuw %struct.RealCommandRunner, ptr %6, i32 0, i32 2
  %8 = getelementptr inbounds nuw %struct.SubprocessSet, ptr %7, i32 0, i32 0
  %9 = call noundef i64 @_ZNKSt6vectorIP10SubprocessSaIS1_EE4sizeEv(ptr noundef nonnull align 8 dereferenceable(24) %8) #16
  %10 = getelementptr inbounds nuw %struct.RealCommandRunner, ptr %6, i32 0, i32 2
  %11 = getelementptr inbounds nuw %struct.SubprocessSet, ptr %10, i32 0, i32 1
  %12 = call noundef i64 @_ZNKSt5queueIP10SubprocessSt5dequeIS1_SaIS1_EEE4sizeEv(ptr noundef nonnull align 8 dereferenceable(80) %11)
  %13 = add i64 %9, %12
  store i64 %13, ptr %3, align 8, !tbaa !27
  call void @llvm.lifetime.start.p0(i64 8, ptr %4) #16
  %14 = getelementptr inbounds nuw %struct.RealCommandRunner, ptr %6, i32 0, i32 1
  %15 = load ptr, ptr %14, align 8, !tbaa !29
  %16 = getelementptr inbounds nuw %struct.BuildConfig, ptr %15, i32 0, i32 3
  %17 = load i32, ptr %16, align 8, !tbaa !58
  %18 = sext i32 %17 to i64
  %19 = load i64, ptr %3, align 8, !tbaa !27
  %20 = sub i64 %18, %19
  store i64 %20, ptr %4, align 8, !tbaa !27
  %21 = getelementptr inbounds nuw %struct.RealCommandRunner, ptr %6, i32 0, i32 1
  %22 = load ptr, ptr %21, align 8, !tbaa !29
  %23 = getelementptr inbounds nuw %struct.BuildConfig, ptr %22, i32 0, i32 5
  %24 = load double, ptr %23, align 8, !tbaa !64
  %25 = fcmp ogt double %24, 0.000000e+00
  br i1 %25, label %26, label %42

26:                                               ; preds = %1
  call void @llvm.lifetime.start.p0(i64 4, ptr %5) #16
  %27 = getelementptr inbounds nuw %struct.RealCommandRunner, ptr %6, i32 0, i32 1
  %28 = load ptr, ptr %27, align 8, !tbaa !29
  %29 = getelementptr inbounds nuw %struct.BuildConfig, ptr %28, i32 0, i32 5
  %30 = load double, ptr %29, align 8, !tbaa !64
  %31 = call noundef double @_Z14GetLoadAveragev()
  %32 = fsub double %30, %31
  %33 = fptosi double %32 to i32
  store i32 %33, ptr %5, align 4, !tbaa !65
  %34 = load i32, ptr %5, align 4, !tbaa !65
  %35 = sext i32 %34 to i64
  %36 = load i64, ptr %4, align 8, !tbaa !27
  %37 = icmp slt i64 %35, %36
  br i1 %37, label %38, label %41

38:                                               ; preds = %26
  %39 = load i32, ptr %5, align 4, !tbaa !65
  %40 = sext i32 %39 to i64
  store i64 %40, ptr %4, align 8, !tbaa !27
  br label %41

41:                                               ; preds = %38, %26
  call void @llvm.lifetime.end.p0(i64 4, ptr %5) #16
  br label %42

42:                                               ; preds = %41, %1
  %43 = load i64, ptr %4, align 8, !tbaa !27
  %44 = icmp slt i64 %43, 0
  br i1 %44, label %45, label %46

45:                                               ; preds = %42
  store i64 0, ptr %4, align 8, !tbaa !27
  br label %46

46:                                               ; preds = %45, %42
  %47 = load i64, ptr %4, align 8, !tbaa !27
  %48 = icmp eq i64 %47, 0
  br i1 %48, label %49, label %54

49:                                               ; preds = %46
  %50 = getelementptr inbounds nuw %struct.RealCommandRunner, ptr %6, i32 0, i32 2
  %51 = getelementptr inbounds nuw %struct.SubprocessSet, ptr %50, i32 0, i32 0
  %52 = call noundef zeroext i1 @_ZNKSt6vectorIP10SubprocessSaIS1_EE5emptyEv(ptr noundef nonnull align 8 dereferenceable(24) %51) #16
  br i1 %52, label %53, label %54

53:                                               ; preds = %49
  store i64 1, ptr %4, align 8, !tbaa !27
  br label %54

54:                                               ; preds = %53, %49, %46
  %55 = load i64, ptr %4, align 8, !tbaa !27
  call void @llvm.lifetime.end.p0(i64 8, ptr %4) #16
  call void @llvm.lifetime.end.p0(i64 8, ptr %3) #16
  ret i64 %55
}