; Function Attrs: mustprogress uwtable
define dso_local noundef range(i64 0, -9223372036854775808) i64 @_ZNK17RealCommandRunner10CanRunMoreEv(ptr noundef nonnull readonly align 8 captures(none) dereferenceable(752) %0) unnamed_addr #0 align 2 personality ptr @__gxx_personality_v0 {
  %2 = getelementptr inbounds nuw i8, ptr %0, i64 16
  %3 = getelementptr inbounds nuw i8, ptr %0, i64 24
  %4 = load ptr, ptr %3, align 8, !tbaa !22
  %5 = load ptr, ptr %2, align 8, !tbaa !25
  %6 = ptrtoint ptr %4 to i64
  %7 = ptrtoint ptr %5 to i64
  %8 = sub i64 %6, %7
  %9 = ashr exact i64 %8, 3
  %10 = getelementptr inbounds nuw i8, ptr %0, i64 88
  %11 = getelementptr inbounds nuw i8, ptr %0, i64 56
  %12 = getelementptr inbounds nuw i8, ptr %0, i64 112
  %13 = load ptr, ptr %12, align 8, !tbaa !26
  %14 = getelementptr inbounds nuw i8, ptr %0, i64 80
  %15 = load ptr, ptr %14, align 8, !tbaa !26
  %16 = ptrtoint ptr %13 to i64
  %17 = ptrtoint ptr %15 to i64
  %18 = sub i64 %16, %17
  %19 = lshr exact i64 %18, 3
  %20 = icmp ne ptr %13, null
  %.neg.i.i.i.neg = zext i1 %20 to i64
  %.neg17 = sub nsw i64 %.neg.i.i.i.neg, %19
  %21 = load ptr, ptr %10, align 8, !tbaa !30
  %22 = getelementptr inbounds nuw i8, ptr %0, i64 96
  %23 = load ptr, ptr %22, align 8, !tbaa !31
  %24 = ptrtoint ptr %21 to i64
  %25 = ptrtoint ptr %23 to i64
  %26 = sub i64 %24, %25
  %27 = ashr exact i64 %26, 3
  %28 = getelementptr inbounds nuw i8, ptr %0, i64 72
  %29 = load ptr, ptr %28, align 8, !tbaa !32
  %30 = load ptr, ptr %11, align 8, !tbaa !30
  %31 = ptrtoint ptr %29 to i64
  %32 = ptrtoint ptr %30 to i64
  %33 = sub i64 %31, %32
  %34 = ashr exact i64 %33, 3
  %35 = getelementptr inbounds nuw i8, ptr %0, i64 8
  %36 = load ptr, ptr %35, align 8, !tbaa !33
  %37 = getelementptr inbounds nuw i8, ptr %36, i64 8
  %38 = load i32, ptr %37, align 8, !tbaa !54
  %39 = sext i32 %38 to i64
  %.neg11 = shl i64 %.neg17, 6
  %40 = add nsw i64 %27, %9
  %41 = add nsw i64 %40, %34
  %.neg16 = sub i64 %.neg11, %41
  %42 = add i64 %.neg16, %39
  %43 = getelementptr inbounds nuw i8, ptr %36, i64 16
  %44 = load double, ptr %43, align 8, !tbaa !60
  %45 = fcmp ogt double %44, 0.000000e+00
  br i1 %45, label %46, label %51

46:                                               ; preds = %1
  %47 = tail call noundef double @_Z14GetLoadAveragev()
  %48 = fsub double %44, %47
  %49 = fptosi double %48 to i32
  %50 = sext i32 %49 to i64
  %spec.select = tail call i64 @llvm.smin.i64(i64 %42, i64 %50)
  %.pre = load ptr, ptr %2, align 8
  %.pre18 = load ptr, ptr %3, align 8
  br label %51

51:                                               ; preds = %46, %1
  %52 = phi ptr [ %.pre18, %46 ], [ %4, %1 ]
  %53 = phi ptr [ %.pre, %46 ], [ %5, %1 ]
  %.0 = phi i64 [ %spec.select, %46 ], [ %42, %1 ]
  %54 = icmp slt i64 %.0, 1
  %55 = icmp eq ptr %53, %52
  %spec.select10 = zext i1 %55 to i64
  %.2 = select i1 %54, i64 %spec.select10, i64 %.0
  ret i64 %.2
}